target datalayout = "e-m:e-p270:32:32-p271:32:32-p272:64:64-i64:64-i128:128-f80:128-n8:16:32:64-S128"
target triple = "x86_64-pc-linux-gnu"

%struct.uv_udp_s = type { ptr, ptr, i32, ptr, [2 x ptr], %union.anon, ptr, i32, i64, i64, ptr, ptr, %struct.uv__io_s, [2 x ptr], [2 x ptr] }
%union.anon = type { [4 x ptr] }
%struct.uv__io_s = type { ptr, [2 x ptr], [2 x ptr], i32, i32, i32 }
%struct.uv_udp_send_s = type { ptr, i32, [6 x ptr], ptr, ptr, [2 x ptr], %struct.sockaddr_storage, i32, ptr, i64, ptr, [4 x %struct.uv_buf_t] }
%struct.sockaddr_storage = type { i16, [118 x i8], i64 }
%struct.uv_buf_t = type { ptr, i64 }

; Function Attrs: nounwind uwtable
define dso_local void @uv__udp_finish_close(ptr noundef %0) #0 {
  %2 = alloca ptr, align 8
  %3 = alloca ptr, align 8
  %4 = alloca ptr, align 8
  store ptr %0, ptr %2, align 8
  br label %5

5:                                                ; preds = %64, %1
  %6 = load ptr, ptr %2, align 8
  %7 = getelementptr inbounds %struct.uv_udp_s, ptr %6, i32 0, i32 13
  %8 = load ptr, ptr %2, align 8
  %9 = getelementptr inbounds %struct.uv_udp_s, ptr %8, i32 0, i32 13
  %10 = getelementptr inbounds [2 x ptr], ptr %9, i64 0, i64 0
  %11 = load ptr, ptr %10, align 8
  %12 = icmp eq ptr %7, %11
  %13 = xor i1 %12, true
  br i1 %13, label %14, label %65

14:                                               ; preds = %5
  %15 = load ptr, ptr %2, align 8
  %16 = getelementptr inbounds %struct.uv_udp_s, ptr %15, i32 0, i32 13
  %17 = getelementptr inbounds [2 x ptr], ptr %16, i64 0, i64 0
  %18 = load ptr, ptr %17, align 8
  store ptr %18, ptr %4, align 8
  br label %19

19:                                               ; preds = %14
  %20 = load ptr, ptr %4, align 8
  %21 = getelementptr inbounds [2 x ptr], ptr %20, i64 0, i64 0
  %22 = load ptr, ptr %21, align 8
  %23 = load ptr, ptr %4, align 8
  %24 = getelementptr inbounds [2 x ptr], ptr %23, i64 0, i64 1
  %25 = load ptr, ptr %24, align 8
  %26 = getelementptr inbounds [2 x ptr], ptr %25, i64 0, i64 0
  store ptr %22, ptr %26, align 8
  %27 = load ptr, ptr %4, align 8
  %28 = getelementptr inbounds [2 x ptr], ptr %27, i64 0, i64 1
  %29 = load ptr, ptr %28, align 8
  %30 = load ptr, ptr %4, align 8
  %31 = getelementptr inbounds [2 x ptr], ptr %30, i64 0, i64 0
  %32 = load ptr, ptr %31, align 8
  %33 = getelementptr inbounds [2 x ptr], ptr %32, i64 0, i64 1
  store ptr %29, ptr %33, align 8
  br label %34

34:                                               ; preds = %19
  %35 = load ptr, ptr %4, align 8
  %36 = getelementptr inbounds i8, ptr %35, i64 -80
  store ptr %36, ptr %3, align 8
  %37 = load ptr, ptr %3, align 8
  %38 = getelementptr inbounds %struct.uv_udp_send_s, ptr %37, i32 0, i32 9
  store i64 -125, ptr %38, align 8
  br label %39

39:                                               ; preds = %34
  %40 = load ptr, ptr %2, align 8
  %41 = getelementptr inbounds %struct.uv_udp_s, ptr %40, i32 0, i32 14
  %42 = load ptr, ptr %3, align 8
  %43 = getelementptr inbounds %struct.uv_udp_send_s, ptr %42, i32 0, i32 5
  %44 = getelementptr inbounds [2 x ptr], ptr %43, i64 0, i64 0
  store ptr %41, ptr %44, align 8
  %45 = load ptr, ptr %2, align 8
  %46 = getelementptr inbounds %struct.uv_udp_s, ptr %45, i32 0, i32 14
  %47 = getelementptr inbounds [2 x ptr], ptr %46, i64 0, i64 1
  %48 = load ptr, ptr %47, align 8
  %49 = load ptr, ptr %3, align 8
  %50 = getelementptr inbounds %struct.uv_udp_send_s, ptr %49, i32 0, i32 5
  %51 = getelementptr inbounds [2 x ptr], ptr %50, i64 0, i64 1
  store ptr %48, ptr %51, align 8
  %52 = load ptr, ptr %3, align 8
  %53 = getelementptr inbounds %struct.uv_udp_send_s, ptr %52, i32 0, i32 5
  %54 = load ptr, ptr %3, align 8
  %55 = getelementptr inbounds %struct.uv_udp_send_s, ptr %54, i32 0, i32 5
  %56 = getelementptr inbounds [2 x ptr], ptr %55, i64 0, i64 1
  %57 = load ptr, ptr %56, align 8
  %58 = getelementptr inbounds [2 x ptr], ptr %57, i64 0, i64 0
  store ptr %53, ptr %58, align 8
  %59 = load ptr, ptr %3, align 8
  %60 = getelementptr inbounds %struct.uv_udp_send_s, ptr %59, i32 0, i32 5
  %61 = load ptr, ptr %2, align 8
  %62 = getelementptr inbounds %struct.uv_udp_s, ptr %61, i32 0, i32 14
  %63 = getelementptr inbounds [2 x ptr], ptr %62, i64 0, i64 1
  store ptr %60, ptr %63, align 8
  br label %64

64:                                               ; preds = %39
  br label %5, !llvm.loop !5

65:                                               ; preds = %5
  %66 = load ptr, ptr %2, align 8
  call void @uv__udp_run_completed(ptr noundef %66)
  %67 = load ptr, ptr %2, align 8
  %68 = getelementptr inbounds %struct.uv_udp_s, ptr %67, i32 0, i32 11
  store ptr null, ptr %68, align 8
  %69 = load ptr, ptr %2, align 8
  %70 = getelementptr inbounds %struct.uv_udp_s, ptr %69, i32 0, i32 10
  store ptr null, ptr %70, align 8
  ret void
}